target datalayout = "e-m:e-p270:32:32-p271:32:32-p272:64:64-i64:64-i128:128-f80:128-n8:16:32:64-S128"
target triple = "x86_64-pc-linux-gnu"

%struct.ossl_param_st = type { ptr, i32, ptr, i64, i64 }
%struct.evp_pkey_ctx_st = type { i32, ptr, ptr, ptr, ptr, %union.anon, %struct.anon.4, ptr, ptr, ptr, i32, i32, ptr, ptr, ptr, ptr, ptr, i8, ptr }
%union.anon = type { %struct.anon.0 }
%struct.anon.0 = type { ptr, ptr }
%struct.anon.4 = type { ptr, ptr, i64, i8 }
%struct.evp_pkey_method_st = type { i32, i32, ptr, ptr, ptr, ptr, ptr, ptr, ptr, ptr, ptr, ptr, ptr, ptr, ptr, ptr, ptr, ptr, ptr, ptr, ptr, ptr, ptr, ptr, ptr, ptr, ptr, ptr, ptr, ptr, ptr, ptr, ptr }

@.str.2 = private unnamed_addr constant [5 x i8] c"seed\00", align 1
@.str.7 = private unnamed_addr constant [33 x i8] c"../openssl/crypto/evp/dsa_ctrl.c\00", align 1
@__func__.dsa_paramgen_check = private unnamed_addr constant [19 x i8] c"dsa_paramgen_check\00", align 1

; Function Attrs: nounwind uwtable
define internal i32 @dsa_paramgen_check(ptr noundef %0) #0 {
  %2 = alloca i32, align 4
  %3 = alloca ptr, align 8
  store ptr %0, ptr %3, align 8, !tbaa !3
  %4 = load ptr, ptr %3, align 8, !tbaa !3
  %5 = icmp eq ptr %4, null
  br i1 %5, label %12, label %6

6:                                                ; preds = %1
  %7 = load ptr, ptr %3, align 8, !tbaa !3
  %8 = getelementptr inbounds nuw %struct.evp_pkey_ctx_st, ptr %7, i32 0, i32 0
  %9 = load i32, ptr %8, align 8, !tbaa !18
  %10 = and i32 %9, 6
  %11 = icmp ne i32 %10, 0
  br i1 %11, label %13, label %12

12:                                               ; preds = %6, %1
  call void @ERR_new()
  call void @ERR_set_debug(ptr noundef @.str.7, i32 noundef 20, ptr noundef @__func__.dsa_paramgen_check)
  call void (i32, i32, ptr, ...) @ERR_set_error(i32 noundef 6, i32 noundef 147, ptr noundef null)
  store i32 -2, ptr %2, align 4
  br label %27

13:                                               ; preds = %6
  %14 = load ptr, ptr %3, align 8, !tbaa !3
  %15 = getelementptr inbounds nuw %struct.evp_pkey_ctx_st, ptr %14, i32 0, i32 12
  %16 = load ptr, ptr %15, align 8, !tbaa !28
  %17 = icmp ne ptr %16, null
  br i1 %17, label %18, label %26

18:                                               ; preds = %13
  %19 = load ptr, ptr %3, align 8, !tbaa !3
  %20 = getelementptr inbounds nuw %struct.evp_pkey_ctx_st, ptr %19, i32 0, i32 12
  %21 = load ptr, ptr %20, align 8, !tbaa !28
  %22 = getelementptr inbounds nuw %struct.evp_pkey_method_st, ptr %21, i32 0, i32 0
  %23 = load i32, ptr %22, align 8, !tbaa !29
  %24 = icmp ne i32 %23, 116
  br i1 %24, label %25, label %26

25:                                               ; preds = %18
  store i32 -1, ptr %2, align 4
  br label %27

26:                                               ; preds = %18, %13
  store i32 1, ptr %2, align 4
  br label %27

27:                                               ; preds = %26, %25, %12
  %28 = load i32, ptr %2, align 4
  ret i32 %28
}

; Function Attrs: nounwind uwtable
define i32 @EVP_PKEY_CTX_set_dsa_paramgen_seed(ptr noundef %0, ptr noundef %1, i64 noundef %2) #0 {
  %4 = alloca i32, align 4
  %5 = alloca ptr, align 8
  %6 = alloca ptr, align 8
  %7 = alloca i64, align 8
  %8 = alloca i32, align 4
  %9 = alloca [2 x %struct.ossl_param_st], align 16
  %10 = alloca ptr, align 8
  %11 = alloca i32, align 4
  %12 = alloca %struct.ossl_param_st, align 8
  %13 = alloca %struct.ossl_param_st, align 8
  store ptr %0, ptr %5, align 8, !tbaa !3
  store ptr %1, ptr %6, align 8, !tbaa !8
  store i64 %2, ptr %7, align 8, !tbaa !16
  call void @llvm.lifetime.start.p0(i64 4, ptr %8) #4
  call void @llvm.lifetime.start.p0(i64 80, ptr %9) #4
  call void @llvm.lifetime.start.p0(i64 8, ptr %10) #4
  %14 = getelementptr inbounds [2 x %struct.ossl_param_st], ptr %9, i64 0, i64 0
  store ptr %14, ptr %10, align 8, !tbaa !10
  %15 = load ptr, ptr %5, align 8, !tbaa !3
  %16 = call i32 @dsa_paramgen_check(ptr noundef %15)
  store i32 %16, ptr %8, align 4, !tbaa !12
  %17 = icmp sle i32 %16, 0
  br i1 %17, label %18, label %20

18:                                               ; preds = %3
  %19 = load i32, ptr %8, align 4, !tbaa !12
  store i32 %19, ptr %4, align 4
  store i32 1, ptr %11, align 4
  br label %30

20:                                               ; preds = %3
  %21 = load ptr, ptr %10, align 8, !tbaa !10
  %22 = getelementptr inbounds nuw %struct.ossl_param_st, ptr %21, i32 1
  store ptr %22, ptr %10, align 8, !tbaa !10
  call void @llvm.lifetime.start.p0(i64 40, ptr %12) #4
  %23 = load ptr, ptr %6, align 8, !tbaa !8
  %24 = load i64, ptr %7, align 8, !tbaa !16
  call void @OSSL_PARAM_construct_octet_string(ptr dead_on_unwind writable sret(%struct.ossl_param_st) align 8 %12, ptr noundef @.str.2, ptr noundef %23, i64 noundef %24)
  call void @llvm.memcpy.p0.p0.i64(ptr align 8 %21, ptr align 8 %12, i64 40, i1 false), !tbaa.struct !14
  call void @llvm.lifetime.end.p0(i64 40, ptr %12) #4
  %25 = load ptr, ptr %10, align 8, !tbaa !10
  %26 = getelementptr inbounds nuw %struct.ossl_param_st, ptr %25, i32 1
  store ptr %26, ptr %10, align 8, !tbaa !10
  call void @llvm.lifetime.start.p0(i64 40, ptr %13) #4
  call void @OSSL_PARAM_construct_end(ptr dead_on_unwind writable sret(%struct.ossl_param_st) align 8 %13)
  call void @llvm.memcpy.p0.p0.i64(ptr align 8 %25, ptr align 8 %13, i64 40, i1 false), !tbaa.struct !14
  call void @llvm.lifetime.end.p0(i64 40, ptr %13) #4
  %27 = load ptr, ptr %5, align 8, !tbaa !3
  %28 = getelementptr inbounds [2 x %struct.ossl_param_st], ptr %9, i64 0, i64 0
  %29 = call i32 @EVP_PKEY_CTX_set_params(ptr noundef %27, ptr noundef %28)
  store i32 %29, ptr %4, align 4
  store i32 1, ptr %11, align 4
  br label %30

30:                                               ; preds = %20, %18
  call void @llvm.lifetime.end.p0(i64 8, ptr %10) #4
  call void @llvm.lifetime.end.p0(i64 80, ptr %9) #4
  call void @llvm.lifetime.end.p0(i64 4, ptr %8) #4
  %31 = load i32, ptr %4, align 4
  ret i32 %31
}