; Function Attrs: nounwind uwtable
define i32 @EVP_PKEY_CTX_set_dsa_paramgen_seed(ptr noundef %0, ptr noundef %1, i64 noundef %2) local_unnamed_addr #0 {
  %4 = alloca [2 x %struct.ossl_param_st], align 16
  %5 = alloca %struct.ossl_param_st, align 8
  call void @llvm.lifetime.start.p0(i64 80, ptr nonnull %4) #4
  %6 = icmp eq ptr %0, null
  br i1 %6, label %10, label %7

7:                                                ; preds = %3
  %8 = load i32, ptr %0, align 8, !tbaa !3
  %9 = and i32 %8, 6
  %.not.i = icmp eq i32 %9, 0
  br i1 %.not.i, label %10, label %11

10:                                               ; preds = %7, %3
  tail call void @ERR_new() #4
  tail call void @ERR_set_debug(ptr noundef nonnull @.str.7, i32 noundef 20, ptr noundef nonnull @__func__.dsa_paramgen_check) #4
  tail call void (i32, i32, ptr, ...) @ERR_set_error(i32 noundef 6, i32 noundef 147, ptr noundef null) #4
  br label %dsa_paramgen_check.exit.thread

11:                                               ; preds = %7
  %12 = getelementptr inbounds nuw i8, ptr %0, i64 120
  %13 = load ptr, ptr %12, align 8, !tbaa !19
  %.not6.i = icmp eq ptr %13, null
  br i1 %.not6.i, label %dsa_paramgen_check.exit, label %14

14:                                               ; preds = %11
  %15 = load i32, ptr %13, align 8, !tbaa !20
  %.not7.i = icmp eq i32 %15, 116
  br i1 %.not7.i, label %dsa_paramgen_check.exit, label %dsa_paramgen_check.exit.thread

dsa_paramgen_check.exit:                          ; preds = %14, %11
  %16 = getelementptr inbounds nuw i8, ptr %4, i64 40
  call void @OSSL_PARAM_construct_octet_string(ptr dead_on_unwind nonnull writable sret(%struct.ossl_param_st) align 8 %4, ptr noundef nonnull @.str.2, ptr noundef %1, i64 noundef %2) #4
  call void @llvm.lifetime.start.p0(i64 40, ptr nonnull %5) #4
  call void @OSSL_PARAM_construct_end(ptr dead_on_unwind nonnull writable sret(%struct.ossl_param_st) align 8 %5) #4
  call void @llvm.memcpy.p0.p0.i64(ptr noundef nonnull align 8 dereferenceable(40) %16, ptr noundef nonnull align 8 dereferenceable(40) %5, i64 40, i1 false), !tbaa.struct !22
  call void @llvm.lifetime.end.p0(i64 40, ptr nonnull %5) #4
  %17 = call i32 @EVP_PKEY_CTX_set_params(ptr noundef nonnull %0, ptr noundef nonnull %4) #4
  br label %dsa_paramgen_check.exit.thread

dsa_paramgen_check.exit.thread:                   ; preds = %14, %10, %dsa_paramgen_check.exit
  %.0 = phi i32 [ %17, %dsa_paramgen_check.exit ], [ -1, %14 ], [ -2, %10 ]
  call void @llvm.lifetime.end.p0(i64 80, ptr nonnull %4) #4
  ret i32 %.0
}